target datalayout = "e-m:e-p270:32:32-p271:32:32-p272:64:64-i64:64-i128:128-f80:128-n8:16:32:64-S128"
target triple = "x86_64-pc-linux-gnu"

@ff_crop_tab = external hidden constant [2304 x i8], align 16

; Function Attrs: nounwind uwtable
define internal void @pred8x8_tm_vp8_c(ptr noundef %0, i64 noundef %1) #1 {
  %3 = alloca ptr, align 8
  %4 = alloca i64, align 8
  %5 = alloca ptr, align 8
  %6 = alloca ptr, align 8
  %7 = alloca i32, align 4
  %8 = alloca ptr, align 8
  store ptr %0, ptr %3, align 8, !tbaa !12
  store i64 %1, ptr %4, align 8, !tbaa !14
  call void @llvm.lifetime.start.p0(i64 8, ptr %5) #9
  %9 = load ptr, ptr %3, align 8, !tbaa !12
  %10 = load i64, ptr %4, align 8, !tbaa !14
  %11 = sub nsw i64 -1, %10
  %12 = getelementptr inbounds i8, ptr %9, i64 %11
  %13 = load i8, ptr %12, align 1, !tbaa !18
  %14 = zext i8 %13 to i32
  %15 = sext i32 %14 to i64
  %16 = sub i64 0, %15
  %17 = getelementptr inbounds i8, ptr getelementptr inbounds (i8, ptr @ff_crop_tab, i64 1024), i64 %16
  store ptr %17, ptr %5, align 8, !tbaa !12
  call void @llvm.lifetime.start.p0(i64 8, ptr %6) #9
  %18 = load ptr, ptr %3, align 8, !tbaa !12
  %19 = load i64, ptr %4, align 8, !tbaa !14
  %20 = sub i64 0, %19
  %21 = getelementptr inbounds i8, ptr %18, i64 %20
  store ptr %21, ptr %6, align 8, !tbaa !12
  call void @llvm.lifetime.start.p0(i64 4, ptr %7) #9
  store i32 0, ptr %7, align 4, !tbaa !9
  br label %22

22:                                               ; preds = %108, %2
  %23 = load i32, ptr %7, align 4, !tbaa !9
  %24 = icmp slt i32 %23, 8
  br i1 %24, label %25, label %111

25:                                               ; preds = %22
  call void @llvm.lifetime.start.p0(i64 8, ptr %8) #9
  %26 = load ptr, ptr %5, align 8, !tbaa !12
  %27 = load ptr, ptr %3, align 8, !tbaa !12
  %28 = getelementptr inbounds i8, ptr %27, i64 -1
  %29 = load i8, ptr %28, align 1, !tbaa !18
  %30 = zext i8 %29 to i32
  %31 = sext i32 %30 to i64
  %32 = getelementptr inbounds i8, ptr %26, i64 %31
  store ptr %32, ptr %8, align 8, !tbaa !12
  %33 = load ptr, ptr %8, align 8, !tbaa !12
  %34 = load ptr, ptr %6, align 8, !tbaa !12
  %35 = getelementptr inbounds i8, ptr %34, i64 0
  %36 = load i8, ptr %35, align 1, !tbaa !18
  %37 = zext i8 %36 to i64
  %38 = getelementptr inbounds nuw i8, ptr %33, i64 %37
  %39 = load i8, ptr %38, align 1, !tbaa !18
  %40 = load ptr, ptr %3, align 8, !tbaa !12
  %41 = getelementptr inbounds i8, ptr %40, i64 0
  store i8 %39, ptr %41, align 1, !tbaa !18
  %42 = load ptr, ptr %8, align 8, !tbaa !12
  %43 = load ptr, ptr %6, align 8, !tbaa !12
  %44 = getelementptr inbounds i8, ptr %43, i64 1
  %45 = load i8, ptr %44, align 1, !tbaa !18
  %46 = zext i8 %45 to i64
  %47 = getelementptr inbounds nuw i8, ptr %42, i64 %46
  %48 = load i8, ptr %47, align 1, !tbaa !18
  %49 = load ptr, ptr %3, align 8, !tbaa !12
  %50 = getelementptr inbounds i8, ptr %49, i64 1
  store i8 %48, ptr %50, align 1, !tbaa !18
  %51 = load ptr, ptr %8, align 8, !tbaa !12
  %52 = load ptr, ptr %6, align 8, !tbaa !12
  %53 = getelementptr inbounds i8, ptr %52, i64 2
  %54 = load i8, ptr %53, align 1, !tbaa !18
  %55 = zext i8 %54 to i64
  %56 = getelementptr inbounds nuw i8, ptr %51, i64 %55
  %57 = load i8, ptr %56, align 1, !tbaa !18
  %58 = load ptr, ptr %3, align 8, !tbaa !12
  %59 = getelementptr inbounds i8, ptr %58, i64 2
  store i8 %57, ptr %59, align 1, !tbaa !18
  %60 = load ptr, ptr %8, align 8, !tbaa !12
  %61 = load ptr, ptr %6, align 8, !tbaa !12
  %62 = getelementptr inbounds i8, ptr %61, i64 3
  %63 = load i8, ptr %62, align 1, !tbaa !18
  %64 = zext i8 %63 to i64
  %65 = getelementptr inbounds nuw i8, ptr %60, i64 %64
  %66 = load i8, ptr %65, align 1, !tbaa !18
  %67 = load ptr, ptr %3, align 8, !tbaa !12
  %68 = getelementptr inbounds i8, ptr %67, i64 3
  store i8 %66, ptr %68, align 1, !tbaa !18
  %69 = load ptr, ptr %8, align 8, !tbaa !12
  %70 = load ptr, ptr %6, align 8, !tbaa !12
  %71 = getelementptr inbounds i8, ptr %70, i64 4
  %72 = load i8, ptr %71, align 1, !tbaa !18
  %73 = zext i8 %72 to i64
  %74 = getelementptr inbounds nuw i8, ptr %69, i64 %73
  %75 = load i8, ptr %74, align 1, !tbaa !18
  %76 = load ptr, ptr %3, align 8, !tbaa !12
  %77 = getelementptr inbounds i8, ptr %76, i64 4
  store i8 %75, ptr %77, align 1, !tbaa !18
  %78 = load ptr, ptr %8, align 8, !tbaa !12
  %79 = load ptr, ptr %6, align 8, !tbaa !12
  %80 = getelementptr inbounds i8, ptr %79, i64 5
  %81 = load i8, ptr %80, align 1, !tbaa !18
  %82 = zext i8 %81 to i64
  %83 = getelementptr inbounds nuw i8, ptr %78, i64 %82
  %84 = load i8, ptr %83, align 1, !tbaa !18
  %85 = load ptr, ptr %3, align 8, !tbaa !12
  %86 = getelementptr inbounds i8, ptr %85, i64 5
  store i8 %84, ptr %86, align 1, !tbaa !18
  %87 = load ptr, ptr %8, align 8, !tbaa !12
  %88 = load ptr, ptr %6, align 8, !tbaa !12
  %89 = getelementptr inbounds i8, ptr %88, i64 6
  %90 = load i8, ptr %89, align 1, !tbaa !18
  %91 = zext i8 %90 to i64
  %92 = getelementptr inbounds nuw i8, ptr %87, i64 %91
  %93 = load i8, ptr %92, align 1, !tbaa !18
  %94 = load ptr, ptr %3, align 8, !tbaa !12
  %95 = getelementptr inbounds i8, ptr %94, i64 6
  store i8 %93, ptr %95, align 1, !tbaa !18
  %96 = load ptr, ptr %8, align 8, !tbaa !12
  %97 = load ptr, ptr %6, align 8, !tbaa !12
  %98 = getelementptr inbounds i8, ptr %97, i64 7
  %99 = load i8, ptr %98, align 1, !tbaa !18
  %100 = zext i8 %99 to i64
  %101 = getelementptr inbounds nuw i8, ptr %96, i64 %100
  %102 = load i8, ptr %101, align 1, !tbaa !18
  %103 = load ptr, ptr %3, align 8, !tbaa !12
  %104 = getelementptr inbounds i8, ptr %103, i64 7
  store i8 %102, ptr %104, align 1, !tbaa !18
  %105 = load i64, ptr %4, align 8, !tbaa !14
  %106 = load ptr, ptr %3, align 8, !tbaa !12
  %107 = getelementptr inbounds i8, ptr %106, i64 %105
  store ptr %107, ptr %3, align 8, !tbaa !12
  call void @llvm.lifetime.end.p0(i64 8, ptr %8) #9
  br label %108

108:                                              ; preds = %25
  %109 = load i32, ptr %7, align 4, !tbaa !9
  %110 = add nsw i32 %109, 1
  store i32 %110, ptr %7, align 4, !tbaa !9
  br label %22, !llvm.loop !307

111:                                              ; preds = %22
  call void @llvm.lifetime.end.p0(i64 4, ptr %7) #9
  call void @llvm.lifetime.end.p0(i64 8, ptr %6) #9
  call void @llvm.lifetime.end.p0(i64 8, ptr %5) #9
  ret void
}