; Function Attrs: nofree norecurse nosync nounwind memory(argmem: readwrite) uwtable
define internal void @pred8x8_tm_vp8_c(ptr noundef captures(none) %0, i64 noundef %1) #3 {
  %3 = xor i64 %1, -1
  %4 = getelementptr inbounds i8, ptr %0, i64 %3
  %5 = load i8, ptr %4, align 1, !tbaa !8
  %6 = zext i8 %5 to i64
  %7 = sub nsw i64 0, %6
  %8 = getelementptr inbounds i8, ptr getelementptr inbounds nuw (i8, ptr @ff_crop_tab, i64 1024), i64 %7
  %9 = sub i64 0, %1
  %10 = getelementptr inbounds i8, ptr %0, i64 %9
  %11 = getelementptr inbounds nuw i8, ptr %10, i64 1
  %12 = getelementptr inbounds nuw i8, ptr %10, i64 2
  %13 = getelementptr inbounds nuw i8, ptr %10, i64 3
  %14 = getelementptr inbounds nuw i8, ptr %10, i64 4
  %15 = getelementptr inbounds nuw i8, ptr %10, i64 5
  %16 = getelementptr inbounds nuw i8, ptr %10, i64 6
  %17 = getelementptr inbounds nuw i8, ptr %10, i64 7
  br label %18

18:                                               ; preds = %2, %18
  %.035 = phi ptr [ %0, %2 ], [ %62, %18 ]
  %.03334 = phi i32 [ 0, %2 ], [ %63, %18 ]
  %19 = getelementptr inbounds i8, ptr %.035, i64 -1
  %20 = load i8, ptr %19, align 1, !tbaa !8
  %21 = zext i8 %20 to i64
  %22 = getelementptr inbounds nuw i8, ptr %8, i64 %21
  %23 = load i8, ptr %10, align 1, !tbaa !8
  %24 = zext i8 %23 to i64
  %25 = getelementptr inbounds nuw i8, ptr %22, i64 %24
  %26 = load i8, ptr %25, align 1, !tbaa !8
  store i8 %26, ptr %.035, align 1, !tbaa !8
  %27 = load i8, ptr %11, align 1, !tbaa !8
  %28 = zext i8 %27 to i64
  %29 = getelementptr inbounds nuw i8, ptr %22, i64 %28
  %30 = load i8, ptr %29, align 1, !tbaa !8
  %31 = getelementptr inbounds nuw i8, ptr %.035, i64 1
  store i8 %30, ptr %31, align 1, !tbaa !8
  %32 = load i8, ptr %12, align 1, !tbaa !8
  %33 = zext i8 %32 to i64
  %34 = getelementptr inbounds nuw i8, ptr %22, i64 %33
  %35 = load i8, ptr %34, align 1, !tbaa !8
  %36 = getelementptr inbounds nuw i8, ptr %.035, i64 2
  store i8 %35, ptr %36, align 1, !tbaa !8
  %37 = load i8, ptr %13, align 1, !tbaa !8
  %38 = zext i8 %37 to i64
  %39 = getelementptr inbounds nuw i8, ptr %22, i64 %38
  %40 = load i8, ptr %39, align 1, !tbaa !8
  %41 = getelementptr inbounds nuw i8, ptr %.035, i64 3
  store i8 %40, ptr %41, align 1, !tbaa !8
  %42 = load i8, ptr %14, align 1, !tbaa !8
  %43 = zext i8 %42 to i64
  %44 = getelementptr inbounds nuw i8, ptr %22, i64 %43
  %45 = load i8, ptr %44, align 1, !tbaa !8
  %46 = getelementptr inbounds nuw i8, ptr %.035, i64 4
  store i8 %45, ptr %46, align 1, !tbaa !8
  %47 = load i8, ptr %15, align 1, !tbaa !8
  %48 = zext i8 %47 to i64
  %49 = getelementptr inbounds nuw i8, ptr %22, i64 %48
  %50 = load i8, ptr %49, align 1, !tbaa !8
  %51 = getelementptr inbounds nuw i8, ptr %.035, i64 5
  store i8 %50, ptr %51, align 1, !tbaa !8
  %52 = load i8, ptr %16, align 1, !tbaa !8
  %53 = zext i8 %52 to i64
  %54 = getelementptr inbounds nuw i8, ptr %22, i64 %53
  %55 = load i8, ptr %54, align 1, !tbaa !8
  %56 = getelementptr inbounds nuw i8, ptr %.035, i64 6
  store i8 %55, ptr %56, align 1, !tbaa !8
  %57 = load i8, ptr %17, align 1, !tbaa !8
  %58 = zext i8 %57 to i64
  %59 = getelementptr inbounds nuw i8, ptr %22, i64 %58
  %60 = load i8, ptr %59, align 1, !tbaa !8
  %61 = getelementptr inbounds nuw i8, ptr %.035, i64 7
  store i8 %60, ptr %61, align 1, !tbaa !8
  %62 = getelementptr inbounds i8, ptr %.035, i64 %1
  %63 = add nuw nsw i32 %.03334, 1
  %exitcond.not = icmp eq i32 %63, 8
  br i1 %exitcond.not, label %64, label %18, !llvm.loop !309

64:                                               ; preds = %18
  ret void
}